target datalayout = "e-m:e-p270:32:32-p271:32:32-p272:64:64-i64:64-i128:128-f80:128-n8:16:32:64-S128"
target triple = "x86_64-unknown-linux-gnu"

%"class.llvh::DenseMap.0" = type <{ ptr, i32, i32, i32, [4 x i8] }>
%"class.llvh::SmallVectorImpl" = type { %"class.llvh::SmallVectorTemplateBase" }
%"class.llvh::SmallVectorTemplateBase" = type { %"class.llvh::SmallVectorTemplateCommon" }
%"class.llvh::SmallVectorTemplateCommon" = type { %"class.llvh::SmallVectorBase" }
%"class.llvh::SmallVectorBase" = type { ptr, i32, i32 }
%"struct.llvh::AlignedCharArrayUnion" = type { %"struct.llvh::AlignedCharArray" }
%"struct.llvh::AlignedCharArray" = type { [8 x i8] }
%"class.hermes::hbc::HBCISel" = type { ptr, ptr, ptr, ptr, ptr, %"class.llvh::DenseMap.22", %"class.llvh::DenseSet", %"class.llvh::SmallVector.28", %"class.llvh::DenseMap.0", %"class.llvh::DenseMap.34", ptr, %"class.llvh::DenseMap.37", %"class.hermes::Identifier", i8, i8, [6 x i8], %"class.llvh::DenseMap.40", %"class.llvh::DenseMap.40", ptr, ptr }
%"class.llvh::DenseMap.22" = type <{ ptr, i32, i32, i32, [4 x i8] }>
%"class.llvh::DenseSet" = type { %"class.llvh::detail::DenseSetImpl" }
%"class.llvh::detail::DenseSetImpl" = type { %"class.llvh::DenseMap.25" }
%"class.llvh::DenseMap.25" = type <{ ptr, i32, i32, i32, [4 x i8] }>
%"class.llvh::SmallVector.28" = type { %"class.llvh::SmallVectorImpl.29", %"struct.llvh::SmallVectorStorage.32" }
%"class.llvh::SmallVectorImpl.29" = type { %"class.llvh::SmallVectorTemplateBase.30" }
%"class.llvh::SmallVectorTemplateBase.30" = type { %"class.llvh::SmallVectorTemplateCommon.31" }
%"class.llvh::SmallVectorTemplateCommon.31" = type { %"class.llvh::SmallVectorBase" }
%"struct.llvh::SmallVectorStorage.32" = type { [8 x %"struct.llvh::AlignedCharArrayUnion.33"] }
%"struct.llvh::AlignedCharArrayUnion.33" = type { %"struct.llvh::AlignedCharArray.21" }
%"struct.llvh::AlignedCharArray.21" = type { [16 x i8] }
%"class.llvh::DenseMap.34" = type <{ ptr, i32, i32, i32, [4 x i8] }>
%"class.llvh::DenseMap.37" = type <{ ptr, i32, i32, i32, [4 x i8] }>
%"class.hermes::Identifier" = type { ptr }
%"class.llvh::DenseMap.40" = type <{ ptr, i32, i32, i32, [4 x i8] }>
%"class.llvh::SMLoc" = type { ptr }
%"class.llvh::ilist_node_with_parent" = type { %"class.llvh::ilist_node" }
%"class.llvh::ilist_node" = type { %"class.llvh::ilist_node_impl" }
%"class.llvh::ilist_node_impl" = type { %"class.llvh::ilist_node_base" }
%"class.llvh::ilist_node_base" = type { ptr, ptr }
%"class.hermes::Value" = type { i8, %"class.hermes::Type", %"class.llvh::SmallVector.13" }
%"class.hermes::Type" = type { i16, i16 }
%"class.llvh::SmallVector.13" = type { %"class.llvh::SmallVectorImpl", %"struct.llvh::SmallVectorStorage.14" }
%"struct.llvh::SmallVectorStorage.14" = type { [2 x %"struct.llvh::AlignedCharArrayUnion"] }
%"class.llvh::SmallVector.15" = type { %"class.llvh::SmallVectorImpl.16", %"struct.llvh::SmallVectorStorage.19" }
%"class.llvh::SmallVectorImpl.16" = type { %"class.llvh::SmallVectorTemplateBase.17" }
%"class.llvh::SmallVectorTemplateBase.17" = type { %"class.llvh::SmallVectorTemplateCommon.18" }
%"class.llvh::SmallVectorTemplateCommon.18" = type { %"class.llvh::SmallVectorBase" }
%"struct.llvh::SmallVectorStorage.19" = type { [2 x %"struct.llvh::AlignedCharArrayUnion.20"] }
%"struct.llvh::AlignedCharArrayUnion.20" = type { %"struct.llvh::AlignedCharArray.21" }
%"class.hermes::Instruction.base" = type <{ %"class.llvh::ilist_node_with_parent", %"class.hermes::Value", ptr, %"class.llvh::SmallVector.15", ptr, %"class.llvh::SMLoc", i32 }>
%"class.hermes::HBCProfilePointInst" = type { %"class.hermes::Instruction.base", i16, [2 x i8] }

; Function Attrs: mustprogress nounwind uwtable
define linkonce_odr hidden noundef zeroext i16 @_ZNK6hermes19HBCProfilePointInst13getPointIndexEv(ptr noundef nonnull align 8 dereferenceable(134) %this) #0 comdat align 2 {
entry:
  %this.addr = alloca ptr, align 8
  store ptr %this, ptr %this.addr, align 8
  %this1 = load ptr, ptr %this.addr, align 8
  %pointIndex_ = getelementptr inbounds %"class.hermes::HBCProfilePointInst", ptr %this1, i32 0, i32 1
  %0 = load i16, ptr %pointIndex_, align 4
  ret i16 %0
}

; Function Attrs: mustprogress nounwind uwtable
define hidden void @_ZN6hermes3hbc7HBCISel27generateHBCProfilePointInstEPNS_19HBCProfilePointInstEPNS_10BasicBlockE(ptr noundef nonnull align 8 dereferenceable(392) %this, ptr noundef %Inst, ptr noundef %next) #0 align 2 {
entry:
  %this.addr = alloca ptr, align 8
  %Inst.addr = alloca ptr, align 8
  %next.addr = alloca ptr, align 8
  store ptr %this, ptr %this.addr, align 8
  store ptr %Inst, ptr %Inst.addr, align 8
  store ptr %next, ptr %next.addr, align 8
  %this1 = load ptr, ptr %this.addr, align 8
  %BCFGen_ = getelementptr inbounds %"class.hermes::hbc::HBCISel", ptr %this1, i32 0, i32 1
  %0 = load ptr, ptr %BCFGen_, align 8
  %1 = load ptr, ptr %Inst.addr, align 8
  %call = call noundef zeroext i16 @_ZNK6hermes19HBCProfilePointInst13getPointIndexEv(ptr noundef nonnull align 8 dereferenceable(134) %1)
  %conv = zext i16 %call to i64
  %call2 = call noundef i32 @_ZN6hermes3hbc28BytecodeInstructionGenerator16emitProfilePointEl(ptr noundef nonnull align 8 dereferenceable(25) %0, i64 noundef %conv)
  ret void
}