; Function Attrs: mustprogress nounwind uwtable
define hidden void @_ZN6hermes3hbc7HBCISel27generateHBCProfilePointInstEPNS_19HBCProfilePointInstEPNS_10BasicBlockE(ptr nocapture noundef nonnull readonly align 8 dereferenceable(392) %this, ptr nocapture noundef readonly %Inst, ptr nocapture noundef readnone %next) local_unnamed_addr #0 align 2 {
entry:
  %BCFGen_ = getelementptr inbounds i8, ptr %this, i64 8
  %0 = load ptr, ptr %BCFGen_, align 8
  %pointIndex_.i = getelementptr inbounds i8, ptr %Inst, i64 132
  %1 = load i16, ptr %pointIndex_.i, align 4
  %conv = zext i16 %1 to i64
  %call2 = tail call noundef i32 @_ZN6hermes3hbc28BytecodeInstructionGenerator16emitProfilePointEl(ptr noundef nonnull align 8 dereferenceable(25) %0, i64 noundef %conv)
  ret void
}